; Function Attrs: mustprogress null_pointer_is_valid sspstrong uwtable
define void @_ZN18ExtArgEditSelector5valueEv(ptr dead_on_unwind noalias writable sret(%class.QString) align 8 %0, ptr noundef readonly align 8 captures(none) dereferenceable_or_null(96) %1) unnamed_addr #0 align 2 personality ptr @__gxx_personality_v0 {
  %3 = alloca %class.QVariant, align 8
  %4 = getelementptr inbounds nuw i8, ptr %1, i64 88
  %5 = load ptr, ptr %4, align 8
  %6 = icmp eq ptr %5, null
  br i1 %6, label %7, label %8

7:                                                ; preds = %2
  tail call void @llvm.memset.p0.i64(ptr noundef align 8 dereferenceable(24) dereferenceable_or_null(24) %0, i8 0, i64 24, i1 false)
  br label %_ZN14ExtArgSelector5valueEv.exit

8:                                                ; preds = %2
  %9 = tail call noundef i32 @_ZNK9QComboBox12currentIndexEv(ptr noundef nonnull align 8 dereferenceable_or_null(40) %5)
  %10 = icmp sgt i32 %9, -1
  br i1 %10, label %11, label %19

11:                                               ; preds = %8
  tail call void @llvm.experimental.noalias.scope.decl(metadata !40)
  %12 = load ptr, ptr %4, align 8, !noalias !40
  %13 = icmp eq ptr %12, null
  br i1 %13, label %14, label %15

14:                                               ; preds = %11
  tail call void @llvm.memset.p0.i64(ptr noundef align 8 dereferenceable(24) dereferenceable_or_null(24) %0, i8 0, i64 24, i1 false), !alias.scope !40
  br label %_ZN14ExtArgSelector5valueEv.exit

15:                                               ; preds = %11
  call void @llvm.lifetime.start.p0(i64 32, ptr nonnull %3) #26, !noalias !40
  call void @_ZNK9QComboBox11currentDataEi(ptr dead_on_unwind nonnull writable sret(%class.QVariant) align 8 %3, ptr noundef nonnull align 8 dereferenceable_or_null(40) %12, i32 noundef 256), !noalias !40
  invoke void @_ZNK8QVariant8toStringEv(ptr dead_on_unwind writable sret(%class.QString) align 8 %0, ptr noundef nonnull align 8 dereferenceable_or_null(32) %3)
          to label %16 unwind label %17

16:                                               ; preds = %15
  call void @_ZN8QVariantD1Ev(ptr noundef nonnull align 8 dereferenceable_or_null(32) %3) #26
  call void @llvm.lifetime.end.p0(i64 32, ptr nonnull %3) #26, !noalias !40
  br label %_ZN14ExtArgSelector5valueEv.exit

17:                                               ; preds = %15
  %18 = landingpad { ptr, i32 }
          cleanup
  call void @_ZN8QVariantD1Ev(ptr noundef nonnull align 8 dereferenceable_or_null(32) %3) #26
  call void @llvm.lifetime.end.p0(i64 32, ptr nonnull %3) #26, !noalias !40
  resume { ptr, i32 } %18

19:                                               ; preds = %8
  %20 = load ptr, ptr %4, align 8
  tail call void @_ZNK9QComboBox11currentTextEv(ptr dead_on_unwind writable sret(%class.QString) align 8 %0, ptr noundef align 8 dereferenceable_or_null(40) %20)
  br label %_ZN14ExtArgSelector5valueEv.exit

_ZN14ExtArgSelector5valueEv.exit:                 ; preds = %16, %14, %19, %7
  ret void
}